; Function Attrs: mustprogress nounwind uwtable
define hidden noundef ptr @_ZNK8ProjNode9proj_typeEPK4Type(ptr nocapture noundef nonnull readonly align 8 dereferenceable(57) %0, ptr noundef readonly %1) local_unnamed_addr #1 align 2 {
  %3 = load ptr, ptr @_ZN4Type3TOPE, align 8
  %4 = icmp eq ptr %3, %1
  br i1 %4, label %_ZNK18CallStaticJavaNode16is_boxing_methodEv.exit.thread, label %5

5:                                                ; preds = %2
  %6 = load ptr, ptr @_ZN4Type6BOTTOME, align 8
  %7 = icmp eq ptr %6, %1
  br i1 %7, label %_ZNK18CallStaticJavaNode16is_boxing_methodEv.exit.thread, label %8

8:                                                ; preds = %5
  %9 = getelementptr inbounds i8, ptr %0, i64 52
  %10 = load i32, ptr %9, align 4
  %11 = getelementptr inbounds i8, ptr %1, i64 24
  %12 = load ptr, ptr %11, align 8
  %13 = zext i32 %10 to i64
  %14 = getelementptr inbounds ptr, ptr %12, i64 %13
  %15 = load ptr, ptr %14, align 8
  %16 = getelementptr inbounds i8, ptr %0, i64 8
  %17 = load ptr, ptr %16, align 8
  %18 = load ptr, ptr %17, align 8
  %19 = icmp eq i32 %10, 5
  br i1 %19, label %20, label %_ZNK18CallStaticJavaNode16is_boxing_methodEv.exit.thread

20:                                               ; preds = %8
  %21 = getelementptr inbounds i8, ptr %18, i64 44
  %22 = load i32, ptr %21, align 4
  %23 = and i32 %22, 31
  %24 = icmp eq i32 %23, 31
  br i1 %24, label %25, label %_ZNK18CallStaticJavaNode16is_boxing_methodEv.exit.thread

25:                                               ; preds = %20
  %26 = getelementptr inbounds i8, ptr %18, i64 48
  %27 = load i32, ptr %26, align 8
  %28 = and i32 %27, 8
  %.not1.i = icmp eq i32 %28, 0
  br i1 %.not1.i, label %_ZNK18CallStaticJavaNode16is_boxing_methodEv.exit.thread, label %29

29:                                               ; preds = %25
  %30 = getelementptr inbounds i8, ptr %18, i64 136
  %31 = load ptr, ptr %30, align 8
  %.not.i = icmp eq ptr %31, null
  br i1 %.not.i, label %_ZNK18CallStaticJavaNode16is_boxing_methodEv.exit.thread, label %_ZNK18CallStaticJavaNode16is_boxing_methodEv.exit

_ZNK18CallStaticJavaNode16is_boxing_methodEv.exit: ; preds = %29
  %32 = tail call noundef zeroext i1 @_ZNK8ciMethod16is_boxing_methodEv(ptr noundef nonnull align 8 dereferenceable(160) %31) #6
  br i1 %32, label %33, label %_ZNK18CallStaticJavaNode16is_boxing_methodEv.exit.thread

33:                                               ; preds = %_ZNK18CallStaticJavaNode16is_boxing_methodEv.exit
  %34 = load ptr, ptr @_ZN7TypePtr7NOTNULLE, align 8
  %35 = getelementptr inbounds i8, ptr %15, i64 8
  %36 = load ptr, ptr %35, align 8
  %37 = getelementptr inbounds i8, ptr %34, i64 8
  %38 = load ptr, ptr %37, align 8
  %39 = tail call noundef ptr @_ZNK4Type11meet_helperEPKS_b(ptr noundef nonnull align 8 dereferenceable(20) %36, ptr noundef %38, i1 noundef zeroext true) #6
  %40 = getelementptr inbounds i8, ptr %39, i64 8
  %41 = load ptr, ptr %40, align 8
  %42 = load ptr, ptr %41, align 8
  %43 = getelementptr inbounds i8, ptr %42, i64 136
  %44 = load ptr, ptr %43, align 8
  %45 = tail call noundef ptr %44(ptr noundef nonnull align 8 dereferenceable(20) %41) #6
  br label %_ZNK18CallStaticJavaNode16is_boxing_methodEv.exit.thread

_ZNK18CallStaticJavaNode16is_boxing_methodEv.exit.thread: ; preds = %25, %29, %8, %20, %_ZNK18CallStaticJavaNode16is_boxing_methodEv.exit, %33, %5, %2
  %.0 = phi ptr [ %3, %2 ], [ %6, %5 ], [ %45, %33 ], [ %15, %_ZNK18CallStaticJavaNode16is_boxing_methodEv.exit ], [ %15, %20 ], [ %15, %8 ], [ %15, %29 ], [ %15, %25 ]
  ret ptr %.0
}